target datalayout = "e-m:e-p270:32:32-p271:32:32-p272:64:64-i64:64-i128:128-f80:128-n8:16:32:64-S128"
target triple = "x86_64-pc-linux-gnu"

%"struct.std::_Rb_tree_header" = type { %"struct.std::_Rb_tree_node_base", i64 }
%"struct.std::_Rb_tree_node_base" = type { i32, ptr, ptr, ptr }
%"struct.Yosys::RTLIL::IdString" = type { i32 }
%"struct.Yosys::RTLIL::SigSpec" = type { i32, i64, %"class.std::vector.154", %"class.std::vector.159" }
%"class.std::vector.154" = type { %"struct.std::_Vector_base.155" }
%"struct.std::_Vector_base.155" = type { %"struct.std::_Vector_base<Yosys::RTLIL::SigChunk, std::allocator<Yosys::RTLIL::SigChunk>>::_Vector_impl" }
%"struct.std::_Vector_base<Yosys::RTLIL::SigChunk, std::allocator<Yosys::RTLIL::SigChunk>>::_Vector_impl" = type { %"struct.std::_Vector_base<Yosys::RTLIL::SigChunk, std::allocator<Yosys::RTLIL::SigChunk>>::_Vector_impl_data" }
%"struct.std::_Vector_base<Yosys::RTLIL::SigChunk, std::allocator<Yosys::RTLIL::SigChunk>>::_Vector_impl_data" = type { ptr, ptr, ptr }
%"class.std::vector.159" = type { %"struct.std::_Vector_base.160" }
%"struct.std::_Vector_base.160" = type { %"struct.std::_Vector_base<Yosys::RTLIL::SigBit, std::allocator<Yosys::RTLIL::SigBit>>::_Vector_impl" }
%"struct.std::_Vector_base<Yosys::RTLIL::SigBit, std::allocator<Yosys::RTLIL::SigBit>>::_Vector_impl" = type { %"struct.std::_Vector_base<Yosys::RTLIL::SigBit, std::allocator<Yosys::RTLIL::SigBit>>::_Vector_impl_data" }
%"struct.std::_Vector_base<Yosys::RTLIL::SigBit, std::allocator<Yosys::RTLIL::SigBit>>::_Vector_impl_data" = type { ptr, ptr, ptr }
%"class.std::_Rb_tree.168" = type { %"struct.std::_Rb_tree<(anonymous namespace)::ExtSigSpec, std::pair<const (anonymous namespace)::ExtSigSpec, std::set<Yosys::RTLIL::Cell *>>, std::_Select1st<std::pair<const (anonymous namespace)::ExtSigSpec, std::set<Yosys::RTLIL::Cell *>>>, std::less<(anonymous namespace)::ExtSigSpec>>::_Rb_tree_impl" }
%"struct.std::_Rb_tree<(anonymous namespace)::ExtSigSpec, std::pair<const (anonymous namespace)::ExtSigSpec, std::set<Yosys::RTLIL::Cell *>>, std::_Select1st<std::pair<const (anonymous namespace)::ExtSigSpec, std::set<Yosys::RTLIL::Cell *>>>, std::less<(anonymous namespace)::ExtSigSpec>>::_Rb_tree_impl" = type { %"struct.std::_Rb_tree_key_compare.172", %"struct.std::_Rb_tree_header" }
%"struct.std::_Rb_tree_key_compare.172" = type { %"struct.std::less.173" }
%"struct.std::less.173" = type { i8 }
%"struct.(anonymous namespace)::ExtSigSpec" = type { %"struct.Yosys::RTLIL::SigSpec", %"struct.Yosys::RTLIL::SigSpec", i8, %"struct.Yosys::RTLIL::IdString" }
%"struct.std::pair.419" = type { %"struct.(anonymous namespace)::ExtSigSpec", %"class.std::set" }
%"class.std::set" = type { %"class.std::_Rb_tree.192" }
%"class.std::_Rb_tree.192" = type { %"struct.std::_Rb_tree<Yosys::RTLIL::Cell *, Yosys::RTLIL::Cell *, std::_Identity<Yosys::RTLIL::Cell *>, std::less<Yosys::RTLIL::Cell *>>::_Rb_tree_impl" }
%"struct.std::_Rb_tree<Yosys::RTLIL::Cell *, Yosys::RTLIL::Cell *, std::_Identity<Yosys::RTLIL::Cell *>, std::less<Yosys::RTLIL::Cell *>>::_Rb_tree_impl" = type { %"struct.std::_Rb_tree_key_compare.196", %"struct.std::_Rb_tree_header" }
%"struct.std::_Rb_tree_key_compare.196" = type { %"struct.std::less.197" }
%"struct.std::less.197" = type { i8 }
%"struct.std::_Rb_tree_node.426" = type { %"struct.std::_Rb_tree_node_base", %"struct.__gnu_cxx::__aligned_membuf.427" }
%"struct.__gnu_cxx::__aligned_membuf.427" = type { [184 x i8] }

; Function Attrs: mustprogress nounwind uwtable
define linkonce_odr void @_ZNSt15__new_allocatorISt13_Rb_tree_nodeIPN5Yosys5RTLIL4CellEEED2Ev(ptr noundef nonnull align 1 dereferenceable(1) %0) unnamed_addr #4 comdat align 2 {
  %2 = alloca ptr, align 8
  store ptr %0, ptr %2, align 8
  ret void
}

; Function Attrs: mustprogress nounwind uwtable
define linkonce_odr void @_ZNSaISt13_Rb_tree_nodeIPN5Yosys5RTLIL4CellEEED2Ev(ptr noundef nonnull align 1 dereferenceable(1) %0) unnamed_addr #4 comdat align 2 {
  %2 = alloca ptr, align 8
  store ptr %0, ptr %2, align 8
  %3 = load ptr, ptr %2, align 8
  call void @_ZNSt15__new_allocatorISt13_Rb_tree_nodeIPN5Yosys5RTLIL4CellEEED2Ev(ptr noundef nonnull align 1 dereferenceable(1) %3) #3
  ret void
}

; Function Attrs: mustprogress nounwind uwtable
define linkonce_odr noundef ptr @_ZNKSt8_Rb_treeIPN5Yosys5RTLIL4CellES3_St9_IdentityIS3_ESt4lessIS3_ESaIS3_EE9_M_mbeginEv(ptr noundef nonnull align 8 dereferenceable(48) %0) #4 comdat align 2 {
  %2 = alloca ptr, align 8
  store ptr %0, ptr %2, align 8
  %3 = load ptr, ptr %2, align 8
  %4 = getelementptr inbounds %"class.std::_Rb_tree.192", ptr %3, i32 0, i32 0
  %5 = getelementptr inbounds i8, ptr %4, i64 8
  %6 = getelementptr inbounds %"struct.std::_Rb_tree_header", ptr %5, i32 0, i32 0
  %7 = getelementptr inbounds %"struct.std::_Rb_tree_node_base", ptr %6, i32 0, i32 1
  %8 = load ptr, ptr %7, align 8
  ret ptr %8
}

; Function Attrs: mustprogress nounwind uwtable
define linkonce_odr void @_ZNSt8_Rb_treeIPN5Yosys5RTLIL4CellES3_St9_IdentityIS3_ESt4lessIS3_ESaIS3_EE13_Rb_tree_implIS7_Lb1EED2Ev(ptr noundef nonnull align 8 dereferenceable(48) %0) unnamed_addr #4 comdat align 2 {
  %2 = alloca ptr, align 8
  store ptr %0, ptr %2, align 8
  %3 = load ptr, ptr %2, align 8
  call void @_ZNSaISt13_Rb_tree_nodeIPN5Yosys5RTLIL4CellEEED2Ev(ptr noundef nonnull align 1 dereferenceable(1) %3) #3
  ret void
}

; Function Attrs: mustprogress nounwind uwtable
define linkonce_odr noundef ptr @_ZNSt8_Rb_treeIPN5Yosys5RTLIL4CellES3_St9_IdentityIS3_ESt4lessIS3_ESaIS3_EE8_M_beginEv(ptr noundef nonnull align 8 dereferenceable(48) %0) #4 comdat align 2 {
  %2 = alloca ptr, align 8
  store ptr %0, ptr %2, align 8
  %3 = load ptr, ptr %2, align 8
  %4 = call noundef ptr @_ZNKSt8_Rb_treeIPN5Yosys5RTLIL4CellES3_St9_IdentityIS3_ESt4lessIS3_ESaIS3_EE9_M_mbeginEv(ptr noundef nonnull align 8 dereferenceable(48) %3) #3
  ret ptr %4
}

; Function Attrs: mustprogress nounwind uwtable
define linkonce_odr void @_ZNSt8_Rb_treeIPN5Yosys5RTLIL4CellES3_St9_IdentityIS3_ESt4lessIS3_ESaIS3_EED2Ev(ptr noundef nonnull align 8 dereferenceable(48) %0) unnamed_addr #4 comdat align 2 personality ptr @__gxx_personality_v0 {
  %2 = alloca ptr, align 8
  store ptr %0, ptr %2, align 8
  %3 = load ptr, ptr %2, align 8
  %4 = call noundef ptr @_ZNSt8_Rb_treeIPN5Yosys5RTLIL4CellES3_St9_IdentityIS3_ESt4lessIS3_ESaIS3_EE8_M_beginEv(ptr noundef nonnull align 8 dereferenceable(48) %3) #3
  invoke void @_ZNSt8_Rb_treeIPN5Yosys5RTLIL4CellES3_St9_IdentityIS3_ESt4lessIS3_ESaIS3_EE8_M_eraseEPSt13_Rb_tree_nodeIS3_E(ptr noundef nonnull align 8 dereferenceable(48) %3, ptr noundef %4)
          to label %5 unwind label %7

5:                                                ; preds = %1
  %6 = getelementptr inbounds %"class.std::_Rb_tree.192", ptr %3, i32 0, i32 0
  call void @_ZNSt8_Rb_treeIPN5Yosys5RTLIL4CellES3_St9_IdentityIS3_ESt4lessIS3_ESaIS3_EE13_Rb_tree_implIS7_Lb1EED2Ev(ptr noundef nonnull align 8 dereferenceable(48) %6) #3
  ret void

7:                                                ; preds = %1
  %8 = landingpad { ptr, i32 }
          catch ptr null
  %9 = extractvalue { ptr, i32 } %8, 0
  call void @__clang_call_terminate(ptr %9) #14
  unreachable
}

; Function Attrs: mustprogress nounwind uwtable
define linkonce_odr void @_ZNSt3setIPN5Yosys5RTLIL4CellESt4lessIS3_ESaIS3_EED2Ev(ptr noundef nonnull align 8 dereferenceable(48) %0) unnamed_addr #4 comdat align 2 {
  %2 = alloca ptr, align 8
  store ptr %0, ptr %2, align 8
  %3 = load ptr, ptr %2, align 8
  %4 = getelementptr inbounds %"class.std::set", ptr %3, i32 0, i32 0
  call void @_ZNSt8_Rb_treeIPN5Yosys5RTLIL4CellES3_St9_IdentityIS3_ESt4lessIS3_ESaIS3_EED2Ev(ptr noundef nonnull align 8 dereferenceable(48) %4) #3
  ret void
}

; Function Attrs: mustprogress nounwind uwtable
define internal void @_ZNSt4pairIKN12_GLOBAL__N_110ExtSigSpecESt3setIPN5Yosys5RTLIL4CellESt4lessIS7_ESaIS7_EEED2Ev(ptr noundef nonnull align 8 dereferenceable(184) %0) unnamed_addr #4 align 2 {
  %2 = alloca ptr, align 8
  store ptr %0, ptr %2, align 8
  %3 = load ptr, ptr %2, align 8
  %4 = getelementptr inbounds %"struct.std::pair.419", ptr %3, i32 0, i32 1
  call void @_ZNSt3setIPN5Yosys5RTLIL4CellESt4lessIS3_ESaIS3_EED2Ev(ptr noundef nonnull align 8 dereferenceable(48) %4) #3
  %5 = getelementptr inbounds %"struct.std::pair.419", ptr %3, i32 0, i32 0
  call void @_ZN12_GLOBAL__N_110ExtSigSpecD2Ev(ptr noundef nonnull align 8 dereferenceable(136) %5) #3
  ret void
}

; Function Attrs: mustprogress nounwind uwtable
define internal noundef ptr @_ZN9__gnu_cxx16__aligned_membufISt4pairIKN12_GLOBAL__N_110ExtSigSpecESt3setIPN5Yosys5RTLIL4CellESt4lessIS9_ESaIS9_EEEE7_M_addrEv(ptr noundef nonnull align 8 dereferenceable(184) %0) #4 align 2 {
  %2 = alloca ptr, align 8
  store ptr %0, ptr %2, align 8
  %3 = load ptr, ptr %2, align 8
  %4 = getelementptr inbounds %"struct.__gnu_cxx::__aligned_membuf.427", ptr %3, i32 0, i32 0
  ret ptr %4
}

; Function Attrs: mustprogress nounwind uwtable
define internal void @_ZNSt15__new_allocatorISt13_Rb_tree_nodeISt4pairIKN12_GLOBAL__N_110ExtSigSpecESt3setIPN5Yosys5RTLIL4CellESt4lessIS9_ESaIS9_EEEEE10deallocateEPSF_m(ptr noundef nonnull align 1 dereferenceable(1) %0, ptr noundef %1, i64 noundef %2) #4 align 2 {
  %4 = alloca ptr, align 8
  %5 = alloca ptr, align 8
  %6 = alloca i64, align 8
  store ptr %0, ptr %4, align 8
  store ptr %1, ptr %5, align 8
  store i64 %2, ptr %6, align 8
  %7 = load ptr, ptr %5, align 8
  call void @_ZdlPv(ptr noundef %7) #17
  ret void
}

; Function Attrs: mustprogress nounwind uwtable
define internal void @_ZNSt15__new_allocatorISt13_Rb_tree_nodeISt4pairIKN12_GLOBAL__N_110ExtSigSpecESt3setIPN5Yosys5RTLIL4CellESt4lessIS9_ESaIS9_EEEEE7destroyISE_EEvPT_(ptr noundef nonnull align 1 dereferenceable(1) %0, ptr noundef %1) #4 align 2 {
  %3 = alloca ptr, align 8
  %4 = alloca ptr, align 8
  store ptr %0, ptr %3, align 8
  store ptr %1, ptr %4, align 8
  %5 = load ptr, ptr %4, align 8
  call void @_ZNSt4pairIKN12_GLOBAL__N_110ExtSigSpecESt3setIPN5Yosys5RTLIL4CellESt4lessIS7_ESaIS7_EEED2Ev(ptr noundef nonnull align 8 dereferenceable(184) %5) #3
  ret void
}

; Function Attrs: mustprogress nounwind uwtable
define internal noundef ptr @_ZN9__gnu_cxx16__aligned_membufISt4pairIKN12_GLOBAL__N_110ExtSigSpecESt3setIPN5Yosys5RTLIL4CellESt4lessIS9_ESaIS9_EEEE6_M_ptrEv(ptr noundef nonnull align 8 dereferenceable(184) %0) #4 align 2 {
  %2 = alloca ptr, align 8
  store ptr %0, ptr %2, align 8
  %3 = load ptr, ptr %2, align 8
  %4 = call noundef ptr @_ZN9__gnu_cxx16__aligned_membufISt4pairIKN12_GLOBAL__N_110ExtSigSpecESt3setIPN5Yosys5RTLIL4CellESt4lessIS9_ESaIS9_EEEE7_M_addrEv(ptr noundef nonnull align 8 dereferenceable(184) %3) #3
  ret ptr %4
}

; Function Attrs: mustprogress uwtable
define internal void @_ZNSt16allocator_traitsISaISt13_Rb_tree_nodeISt4pairIKN12_GLOBAL__N_110ExtSigSpecESt3setIPN5Yosys5RTLIL4CellESt4lessIS9_ESaIS9_EEEEEE10deallocateERSG_PSF_m(ptr noundef nonnull align 1 dereferenceable(1) %0, ptr noundef %1, i64 noundef %2) #5 align 2 {
  %4 = alloca ptr, align 8
  %5 = alloca ptr, align 8
  %6 = alloca i64, align 8
  store ptr %0, ptr %4, align 8
  store ptr %1, ptr %5, align 8
  store i64 %2, ptr %6, align 8
  %7 = load ptr, ptr %4, align 8
  %8 = load ptr, ptr %5, align 8
  %9 = load i64, ptr %6, align 8
  call void @_ZNSt15__new_allocatorISt13_Rb_tree_nodeISt4pairIKN12_GLOBAL__N_110ExtSigSpecESt3setIPN5Yosys5RTLIL4CellESt4lessIS9_ESaIS9_EEEEE10deallocateEPSF_m(ptr noundef nonnull align 1 dereferenceable(1) %7, ptr noundef %8, i64 noundef %9)
  ret void
}

; Function Attrs: mustprogress nounwind uwtable
define internal void @_ZNSt16allocator_traitsISaISt13_Rb_tree_nodeISt4pairIKN12_GLOBAL__N_110ExtSigSpecESt3setIPN5Yosys5RTLIL4CellESt4lessIS9_ESaIS9_EEEEEE7destroyISE_EEvRSG_PT_(ptr noundef nonnull align 1 dereferenceable(1) %0, ptr noundef %1) #4 align 2 {
  %3 = alloca ptr, align 8
  %4 = alloca ptr, align 8
  store ptr %0, ptr %3, align 8
  store ptr %1, ptr %4, align 8
  %5 = load ptr, ptr %3, align 8
  %6 = load ptr, ptr %4, align 8
  call void @_ZNSt15__new_allocatorISt13_Rb_tree_nodeISt4pairIKN12_GLOBAL__N_110ExtSigSpecESt3setIPN5Yosys5RTLIL4CellESt4lessIS9_ESaIS9_EEEEE7destroyISE_EEvPT_(ptr noundef nonnull align 1 dereferenceable(1) %5, ptr noundef %6) #3
  ret void
}

; Function Attrs: mustprogress nounwind uwtable
define internal noundef ptr @_ZNSt13_Rb_tree_nodeISt4pairIKN12_GLOBAL__N_110ExtSigSpecESt3setIPN5Yosys5RTLIL4CellESt4lessIS8_ESaIS8_EEEE9_M_valptrEv(ptr noundef nonnull align 8 dereferenceable(216) %0) #4 align 2 {
  %2 = alloca ptr, align 8
  store ptr %0, ptr %2, align 8
  %3 = load ptr, ptr %2, align 8
  %4 = getelementptr inbounds %"struct.std::_Rb_tree_node.426", ptr %3, i32 0, i32 1
  %5 = call noundef ptr @_ZN9__gnu_cxx16__aligned_membufISt4pairIKN12_GLOBAL__N_110ExtSigSpecESt3setIPN5Yosys5RTLIL4CellESt4lessIS9_ESaIS9_EEEE6_M_ptrEv(ptr noundef nonnull align 8 dereferenceable(184) %4) #3
  ret ptr %5
}

; Function Attrs: mustprogress nounwind uwtable
define internal noundef nonnull align 1 dereferenceable(1) ptr @_ZNSt8_Rb_treeIN12_GLOBAL__N_110ExtSigSpecESt4pairIKS1_St3setIPN5Yosys5RTLIL4CellESt4lessIS8_ESaIS8_EEESt10_Select1stISD_ES9_IS1_ESaISD_EE21_M_get_Node_allocatorEv(ptr noundef nonnull align 8 dereferenceable(48) %0) #4 align 2 {
  %2 = alloca ptr, align 8
  store ptr %0, ptr %2, align 8
  %3 = load ptr, ptr %2, align 8
  %4 = getelementptr inbounds %"class.std::_Rb_tree.168", ptr %3, i32 0, i32 0
  ret ptr %4
}

; Function Attrs: mustprogress nounwind uwtable
define internal void @_ZNSt8_Rb_treeIN12_GLOBAL__N_110ExtSigSpecESt4pairIKS1_St3setIPN5Yosys5RTLIL4CellESt4lessIS8_ESaIS8_EEESt10_Select1stISD_ES9_IS1_ESaISD_EE11_M_put_nodeEPSt13_Rb_tree_nodeISD_E(ptr noundef nonnull align 8 dereferenceable(48) %0, ptr noundef %1) #4 align 2 personality ptr @__gxx_personality_v0 {
  %3 = alloca ptr, align 8
  %4 = alloca ptr, align 8
  store ptr %0, ptr %3, align 8
  store ptr %1, ptr %4, align 8
  %5 = load ptr, ptr %3, align 8
  %6 = call noundef nonnull align 1 dereferenceable(1) ptr @_ZNSt8_Rb_treeIN12_GLOBAL__N_110ExtSigSpecESt4pairIKS1_St3setIPN5Yosys5RTLIL4CellESt4lessIS8_ESaIS8_EEESt10_Select1stISD_ES9_IS1_ESaISD_EE21_M_get_Node_allocatorEv(ptr noundef nonnull align 8 dereferenceable(48) %5) #3
  %7 = load ptr, ptr %4, align 8
  invoke void @_ZNSt16allocator_traitsISaISt13_Rb_tree_nodeISt4pairIKN12_GLOBAL__N_110ExtSigSpecESt3setIPN5Yosys5RTLIL4CellESt4lessIS9_ESaIS9_EEEEEE10deallocateERSG_PSF_m(ptr noundef nonnull align 1 dereferenceable(1) %6, ptr noundef %7, i64 noundef 1)
          to label %8 unwind label %9

8:                                                ; preds = %2
  ret void

9:                                                ; preds = %2
  %10 = landingpad { ptr, i32 }
          catch ptr null
  %11 = extractvalue { ptr, i32 } %10, 0
  call void @__clang_call_terminate(ptr %11) #14
  unreachable
}

; Function Attrs: mustprogress nounwind uwtable
define internal void @_ZNSt8_Rb_treeIN12_GLOBAL__N_110ExtSigSpecESt4pairIKS1_St3setIPN5Yosys5RTLIL4CellESt4lessIS8_ESaIS8_EEESt10_Select1stISD_ES9_IS1_ESaISD_EE15_M_destroy_nodeEPSt13_Rb_tree_nodeISD_E(ptr noundef nonnull align 8 dereferenceable(48) %0, ptr noundef %1) #4 align 2 {
  %3 = alloca ptr, align 8
  %4 = alloca ptr, align 8
  store ptr %0, ptr %3, align 8
  store ptr %1, ptr %4, align 8
  %5 = load ptr, ptr %3, align 8
  %6 = call noundef nonnull align 1 dereferenceable(1) ptr @_ZNSt8_Rb_treeIN12_GLOBAL__N_110ExtSigSpecESt4pairIKS1_St3setIPN5Yosys5RTLIL4CellESt4lessIS8_ESaIS8_EEESt10_Select1stISD_ES9_IS1_ESaISD_EE21_M_get_Node_allocatorEv(ptr noundef nonnull align 8 dereferenceable(48) %5) #3
  %7 = load ptr, ptr %4, align 8
  %8 = call noundef ptr @_ZNSt13_Rb_tree_nodeISt4pairIKN12_GLOBAL__N_110ExtSigSpecESt3setIPN5Yosys5RTLIL4CellESt4lessIS8_ESaIS8_EEEE9_M_valptrEv(ptr noundef nonnull align 8 dereferenceable(216) %7)
  call void @_ZNSt16allocator_traitsISaISt13_Rb_tree_nodeISt4pairIKN12_GLOBAL__N_110ExtSigSpecESt3setIPN5Yosys5RTLIL4CellESt4lessIS9_ESaIS9_EEEEEE7destroyISE_EEvRSG_PT_(ptr noundef nonnull align 1 dereferenceable(1) %6, ptr noundef %8) #3
  ret void
}

; Function Attrs: mustprogress nounwind uwtable
define internal void @_ZNSt8_Rb_treeIN12_GLOBAL__N_110ExtSigSpecESt4pairIKS1_St3setIPN5Yosys5RTLIL4CellESt4lessIS8_ESaIS8_EEESt10_Select1stISD_ES9_IS1_ESaISD_EE12_M_drop_nodeEPSt13_Rb_tree_nodeISD_E(ptr noundef nonnull align 8 dereferenceable(48) %0, ptr noundef %1) #4 align 2 {
  %3 = alloca ptr, align 8
  %4 = alloca ptr, align 8
  store ptr %0, ptr %3, align 8
  store ptr %1, ptr %4, align 8
  %5 = load ptr, ptr %3, align 8
  %6 = load ptr, ptr %4, align 8
  call void @_ZNSt8_Rb_treeIN12_GLOBAL__N_110ExtSigSpecESt4pairIKS1_St3setIPN5Yosys5RTLIL4CellESt4lessIS8_ESaIS8_EEESt10_Select1stISD_ES9_IS1_ESaISD_EE15_M_destroy_nodeEPSt13_Rb_tree_nodeISD_E(ptr noundef nonnull align 8 dereferenceable(48) %5, ptr noundef %6) #3
  %7 = load ptr, ptr %4, align 8
  call void @_ZNSt8_Rb_treeIN12_GLOBAL__N_110ExtSigSpecESt4pairIKS1_St3setIPN5Yosys5RTLIL4CellESt4lessIS8_ESaIS8_EEESt10_Select1stISD_ES9_IS1_ESaISD_EE11_M_put_nodeEPSt13_Rb_tree_nodeISD_E(ptr noundef nonnull align 8 dereferenceable(48) %5, ptr noundef %7) #3
  ret void
}

; Function Attrs: mustprogress nounwind uwtable
define internal noundef ptr @_ZNSt8_Rb_treeIN12_GLOBAL__N_110ExtSigSpecESt4pairIKS1_St3setIPN5Yosys5RTLIL4CellESt4lessIS8_ESaIS8_EEESt10_Select1stISD_ES9_IS1_ESaISD_EE7_S_leftEPSt18_Rb_tree_node_base(ptr noundef %0) #4 align 2 {
  %2 = alloca ptr, align 8
  store ptr %0, ptr %2, align 8
  %3 = load ptr, ptr %2, align 8
  %4 = getelementptr inbounds %"struct.std::_Rb_tree_node_base", ptr %3, i32 0, i32 2
  %5 = load ptr, ptr %4, align 8
  ret ptr %5
}

; Function Attrs: mustprogress nounwind uwtable
define internal noundef ptr @_ZNSt8_Rb_treeIN12_GLOBAL__N_110ExtSigSpecESt4pairIKS1_St3setIPN5Yosys5RTLIL4CellESt4lessIS8_ESaIS8_EEESt10_Select1stISD_ES9_IS1_ESaISD_EE8_S_rightEPSt18_Rb_tree_node_base(ptr noundef %0) #4 align 2 {
  %2 = alloca ptr, align 8
  store ptr %0, ptr %2, align 8
  %3 = load ptr, ptr %2, align 8
  %4 = getelementptr inbounds %"struct.std::_Rb_tree_node_base", ptr %3, i32 0, i32 3
  %5 = load ptr, ptr %4, align 8
  ret ptr %5
}

; Function Attrs: mustprogress uwtable
define internal void @_ZNSt8_Rb_treeIN12_GLOBAL__N_110ExtSigSpecESt4pairIKS1_St3setIPN5Yosys5RTLIL4CellESt4lessIS8_ESaIS8_EEESt10_Select1stISD_ES9_IS1_ESaISD_EE8_M_eraseEPSt13_Rb_tree_nodeISD_E(ptr noundef nonnull align 8 dereferenceable(48) %0, ptr noundef %1) #5 align 2 {
  %3 = alloca ptr, align 8
  %4 = alloca ptr, align 8
  %5 = alloca ptr, align 8
  store ptr %0, ptr %3, align 8
  store ptr %1, ptr %4, align 8
  %6 = load ptr, ptr %3, align 8
  br label %7

7:                                                ; preds = %10, %2
  %8 = load ptr, ptr %4, align 8
  %9 = icmp ne ptr %8, null
  br i1 %9, label %10, label %17

10:                                               ; preds = %7
  %11 = load ptr, ptr %4, align 8
  %12 = call noundef ptr @_ZNSt8_Rb_treeIN12_GLOBAL__N_110ExtSigSpecESt4pairIKS1_St3setIPN5Yosys5RTLIL4CellESt4lessIS8_ESaIS8_EEESt10_Select1stISD_ES9_IS1_ESaISD_EE8_S_rightEPSt18_Rb_tree_node_base(ptr noundef %11) #3
  call void @_ZNSt8_Rb_treeIN12_GLOBAL__N_110ExtSigSpecESt4pairIKS1_St3setIPN5Yosys5RTLIL4CellESt4lessIS8_ESaIS8_EEESt10_Select1stISD_ES9_IS1_ESaISD_EE8_M_eraseEPSt13_Rb_tree_nodeISD_E(ptr noundef nonnull align 8 dereferenceable(48) %6, ptr noundef %12)
  %13 = load ptr, ptr %4, align 8
  %14 = call noundef ptr @_ZNSt8_Rb_treeIN12_GLOBAL__N_110ExtSigSpecESt4pairIKS1_St3setIPN5Yosys5RTLIL4CellESt4lessIS8_ESaIS8_EEESt10_Select1stISD_ES9_IS1_ESaISD_EE7_S_leftEPSt18_Rb_tree_node_base(ptr noundef %13) #3
  store ptr %14, ptr %5, align 8
  %15 = load ptr, ptr %4, align 8
  call void @_ZNSt8_Rb_treeIN12_GLOBAL__N_110ExtSigSpecESt4pairIKS1_St3setIPN5Yosys5RTLIL4CellESt4lessIS8_ESaIS8_EEESt10_Select1stISD_ES9_IS1_ESaISD_EE12_M_drop_nodeEPSt13_Rb_tree_nodeISD_E(ptr noundef nonnull align 8 dereferenceable(48) %6, ptr noundef %15) #3
  %16 = load ptr, ptr %5, align 8
  store ptr %16, ptr %4, align 8
  br label %7, !llvm.loop !79

17:                                               ; preds = %7
  ret void
}