; Function Attrs: mustprogress nounwind uwtable
define internal fastcc void @_ZNSt8_Rb_treeIN12_GLOBAL__N_110ExtSigSpecESt4pairIKS1_St3setIPN5Yosys5RTLIL4CellESt4lessIS8_ESaIS8_EEESt10_Select1stISD_ES9_IS1_ESaISD_EE8_M_eraseEPSt13_Rb_tree_nodeISD_E(ptr noundef %0) unnamed_addr #3 align 2 personality ptr @__gxx_personality_v0 {
  %.not7 = icmp eq ptr %0, null
  br i1 %.not7, label %._crit_edge, label %.lr.ph

.lr.ph:                                           ; preds = %1, %_ZNSt8_Rb_treeIN12_GLOBAL__N_110ExtSigSpecESt4pairIKS1_St3setIPN5Yosys5RTLIL4CellESt4lessIS8_ESaIS8_EEESt10_Select1stISD_ES9_IS1_ESaISD_EE12_M_drop_nodeEPSt13_Rb_tree_nodeISD_E.exit
  %.08 = phi ptr [ %.0.val, %_ZNSt8_Rb_treeIN12_GLOBAL__N_110ExtSigSpecESt4pairIKS1_St3setIPN5Yosys5RTLIL4CellESt4lessIS8_ESaIS8_EEESt10_Select1stISD_ES9_IS1_ESaISD_EE12_M_drop_nodeEPSt13_Rb_tree_nodeISD_E.exit ], [ %0, %1 ]
  %2 = getelementptr i8, ptr %.08, i64 24
  %.0.val6 = load ptr, ptr %2, align 8
  tail call fastcc void @_ZNSt8_Rb_treeIN12_GLOBAL__N_110ExtSigSpecESt4pairIKS1_St3setIPN5Yosys5RTLIL4CellESt4lessIS8_ESaIS8_EEESt10_Select1stISD_ES9_IS1_ESaISD_EE8_M_eraseEPSt13_Rb_tree_nodeISD_E(ptr noundef %.0.val6)
  %3 = getelementptr i8, ptr %.08, i64 16
  %.0.val = load ptr, ptr %3, align 8
  %4 = getelementptr inbounds i8, ptr %.08, i64 168
  %5 = getelementptr inbounds i8, ptr %.08, i64 184
  %6 = load ptr, ptr %5, align 8
  invoke void @_ZNSt8_Rb_treeIPN5Yosys5RTLIL4CellES3_St9_IdentityIS3_ESt4lessIS3_ESaIS3_EE8_M_eraseEPSt13_Rb_tree_nodeIS3_E(ptr noundef nonnull align 8 dereferenceable(48) %4, ptr noundef %6)
          to label %_ZNSt8_Rb_treeIN12_GLOBAL__N_110ExtSigSpecESt4pairIKS1_St3setIPN5Yosys5RTLIL4CellESt4lessIS8_ESaIS8_EEESt10_Select1stISD_ES9_IS1_ESaISD_EE12_M_drop_nodeEPSt13_Rb_tree_nodeISD_E.exit unwind label %7

7:                                                ; preds = %.lr.ph
  %8 = landingpad { ptr, i32 }
          catch ptr null
  %9 = extractvalue { ptr, i32 } %8, 0
  tail call void @__clang_call_terminate(ptr %9) #18
  unreachable

_ZNSt8_Rb_treeIN12_GLOBAL__N_110ExtSigSpecESt4pairIKS1_St3setIPN5Yosys5RTLIL4CellESt4lessIS8_ESaIS8_EEESt10_Select1stISD_ES9_IS1_ESaISD_EE12_M_drop_nodeEPSt13_Rb_tree_nodeISD_E.exit: ; preds = %.lr.ph
  %10 = getelementptr inbounds i8, ptr %.08, i64 32
  tail call fastcc void @_ZN12_GLOBAL__N_110ExtSigSpecD2Ev(ptr noundef nonnull align 8 dereferenceable(136) %10) #19
  tail call void @_ZdlPv(ptr noundef nonnull %.08) #20
  %.not = icmp eq ptr %.0.val, null
  br i1 %.not, label %._crit_edge, label %.lr.ph, !llvm.loop !430

._crit_edge:                                      ; preds = %_ZNSt8_Rb_treeIN12_GLOBAL__N_110ExtSigSpecESt4pairIKS1_St3setIPN5Yosys5RTLIL4CellESt4lessIS8_ESaIS8_EEESt10_Select1stISD_ES9_IS1_ESaISD_EE12_M_drop_nodeEPSt13_Rb_tree_nodeISD_E.exit, %1
  ret void
}